target datalayout = "e-m:e-p270:32:32-p271:32:32-p272:64:64-i64:64-i128:128-f80:128-n8:16:32:64-S128"
target triple = "x86_64-unknown-linux-gnu"

; Function Attrs: nounwind sspstrong uwtable
define dso_local i64 @strlen_console(ptr noundef %text) #0 {
entry:
  %retval = alloca i64, align 8
  %text.addr = alloca ptr, align 8
  %len = alloca i64, align 8
  %wtmp = alloca ptr, align 8
  store ptr %text, ptr %text.addr, align 8
  %0 = load ptr, ptr %text.addr, align 8
  %call = call i64 @strlen(ptr noundef %0) #8
  %add = add i64 %call, 1
  store i64 %add, ptr %len, align 8
  %1 = load i64, ptr %len, align 8
  %mul = mul i64 %1, 4
  %call1 = call noalias ptr @malloc(i64 noundef %mul) #9
  store ptr %call1, ptr %wtmp, align 8
  %2 = load ptr, ptr %wtmp, align 8
  %cmp = icmp eq ptr %2, null
  br i1 %cmp, label %if.then, label %if.end

if.then:                                          ; preds = %entry
  %3 = load i64, ptr %len, align 8
  %sub = sub i64 %3, 1
  store i64 %sub, ptr %retval, align 8
  br label %return

if.end:                                           ; preds = %entry
  %4 = load ptr, ptr %wtmp, align 8
  %5 = load ptr, ptr %text.addr, align 8
  %6 = load i64, ptr %len, align 8
  %call2 = call i64 @mbstowcs(ptr noundef %4, ptr noundef %5, i64 noundef %6) #7
  %7 = load ptr, ptr %wtmp, align 8
  %8 = load i64, ptr %len, align 8
  %call3 = call i32 @wcswidth(ptr noundef %7, i64 noundef %8) #7
  %conv = sext i32 %call3 to i64
  store i64 %conv, ptr %len, align 8
  %9 = load ptr, ptr %wtmp, align 8
  call void @free(ptr noundef %9) #7
  %10 = load i64, ptr %len, align 8
  store i64 %10, ptr %retval, align 8
  br label %return

return:                                           ; preds = %if.end, %if.then
  %11 = load i64, ptr %retval, align 8
  ret i64 %11
}