; Function Attrs: nounwind sspstrong uwtable
define dso_local i64 @strlen_console(ptr noundef %text) local_unnamed_addr #2 {
entry:
  %call = tail call i64 @strlen(ptr noundef nonnull dereferenceable(1) %text) #19
  %add = add i64 %call, 1
  %mul = shl i64 %add, 2
  %call1 = tail call noalias ptr @malloc(i64 noundef %mul) #20
  %cmp = icmp eq ptr %call1, null
  br i1 %cmp, label %return, label %if.end

if.end:                                           ; preds = %entry
  %call2 = tail call i64 @mbstowcs(ptr noundef nonnull %call1, ptr noundef nonnull %text, i64 noundef %add) #18
  %call3 = tail call i32 @wcswidth(ptr noundef nonnull %call1, i64 noundef %add) #18
  %conv = sext i32 %call3 to i64
  tail call void @free(ptr noundef nonnull %call1) #18
  br label %return

return:                                           ; preds = %entry, %if.end
  %retval.0 = phi i64 [ %conv, %if.end ], [ %call, %entry ]
  ret i64 %retval.0
}